target datalayout = "e-m:e-p270:32:32-p271:32:32-p272:64:64-i64:64-i128:128-f80:128-n8:16:32:64-S128"
target triple = "x86_64-pc-linux-gnu"

%"struct.std::__detail::_Hash_node_base" = type { ptr }
%"struct.std::__detail::_Prime_rehash_policy" = type { float, i64 }
%"class.std::__cxx11::basic_string" = type { %"struct.std::__cxx11::basic_string<char>::_Alloc_hider", i64, %union.anon }
%"struct.std::__cxx11::basic_string<char>::_Alloc_hider" = type { ptr }
%union.anon = type { i64, [8 x i8] }
%class.VNUser1InUse = type { i8 }
%class.VNUser2InUse = type { i8 }
%"class.V3Sched::(anonymous namespace)::SchedGraphBuilder" = type { %class.VNVisitor, %class.VNUser1InUse, %class.VNUser2InUse, ptr, %"class.std::unordered_map.64", ptr, ptr, %"class.std::function", ptr }
%class.VNVisitor = type { %class.VNVisitorConst, %class.VNDeleter }
%class.VNVisitorConst = type { ptr }
%class.VNDeleter = type { %"class.std::vector.59" }
%"class.std::vector.59" = type { %"struct.std::_Vector_base.60" }
%"struct.std::_Vector_base.60" = type { %"struct.std::_Vector_base<AstNode *, std::allocator<AstNode *>>::_Vector_impl" }
%"struct.std::_Vector_base<AstNode *, std::allocator<AstNode *>>::_Vector_impl" = type { %"struct.std::_Vector_base<AstNode *, std::allocator<AstNode *>>::_Vector_impl_data" }
%"struct.std::_Vector_base<AstNode *, std::allocator<AstNode *>>::_Vector_impl_data" = type { ptr, ptr, ptr }
%"class.std::unordered_map.64" = type { %"class.std::_Hashtable.65" }
%"class.std::_Hashtable.65" = type { %"struct.std::__detail::_Hashtable_base.66", ptr, i64, %"struct.std::__detail::_Hash_node_base", i64, %"struct.std::__detail::_Prime_rehash_policy", ptr }
%"struct.std::__detail::_Hashtable_base.66" = type { %"struct.std::__detail::_Hash_code_base.67", %"struct.std::__detail::_Hashtable_ebo_helper.70" }
%"struct.std::__detail::_Hash_code_base.67" = type { %"struct.std::__detail::_Hashtable_ebo_helper.68" }
%"struct.std::__detail::_Hashtable_ebo_helper.68" = type { %"struct.std::hash.69" }
%"struct.std::hash.69" = type { i8 }
%"struct.std::__detail::_Hashtable_ebo_helper.70" = type { %"struct.std::equal_to.71" }
%"struct.std::equal_to.71" = type { i8 }
%"class.std::function" = type { %"class.std::_Function_base", ptr }
%"class.std::_Function_base" = type { %"union.std::_Any_data", ptr }
%"union.std::_Any_data" = type { %"union.std::_Nocopy_types" }
%"union.std::_Nocopy_types" = type { { i64, i64 } }
%class.V3GraphVertex = type { ptr, %class.V3ListLinks, %class.V3List.5, %class.V3List.6, double, i32, i32, %union.anon.7 }
%class.V3ListLinks = type { ptr, ptr }
%class.V3List.5 = type { ptr, ptr }
%class.V3List.6 = type { ptr, ptr }
%union.anon.7 = type { ptr }
%class.AstNode = type { ptr, ptr, ptr, ptr, ptr, ptr, ptr, ptr, %class.VNType, %struct.anon, i8, i32, ptr, ptr, ptr, ptr, %class.VNUser, i32, i32, %class.VNUser, %class.VNUser, i32, i32, %class.VNUser }
%class.VNType = type { i16 }
%struct.anon = type { i8 }
%class.VNUser = type { %union.anon.8 }
%union.anon.8 = type { ptr }
%class.V3GraphEdge = type { ptr, %class.V3ListLinks.107, %class.V3ListLinks.107, ptr, ptr, i32, i8, %union.anon.108 }
%class.V3ListLinks.107 = type { ptr, ptr }
%union.anon.108 = type { ptr }
%"class.V3Sched::(anonymous namespace)::SchedVarVertex" = type { %class.V3GraphVertex, ptr }
%class.AstVarScope = type { %class.AstNode, i8, ptr, ptr }
%class.AstVar = type <{ %class.AstNode, %"class.std::__cxx11::basic_string", %"class.std::__cxx11::basic_string", %"class.std::__cxx11::basic_string", %class.VVarType, %class.VDirection, %class.VDirection, %class.VLifetime, %class.VVarAttrClocker, [3 x i8], i32, i48, [4 x i8], ptr }>
%class.VVarType = type { i8 }
%class.VDirection = type { i8 }
%class.VLifetime = type { i8 }
%class.VVarAttrClocker = type { i8 }

@_ZN12VNUser1InUse12s_userCntGblE = external global i32, align 4
@_ZTV11V3GraphEdge = external unnamed_addr constant { [11 x ptr] }, align 8

; Function Attrs: mustprogress nounwind uwtable
define linkonce_odr dso_local noundef ptr @_ZNK6VNUser2toIP7AstNodeEENSt9enable_ifIXsr3std10is_pointerIT_EE5valueES4_E4typeEv(ptr noundef nonnull align 8 dereferenceable(8) %0) #5 comdat align 2 {
  %2 = alloca ptr, align 8
  store ptr %0, ptr %2, align 8
  %3 = load ptr, ptr %2, align 8
  %4 = getelementptr inbounds %class.VNUser, ptr %3, i32 0, i32 0
  %5 = load ptr, ptr %4, align 8
  ret ptr %5
}

; Function Attrs: mustprogress nounwind uwtable
define linkonce_odr dso_local void @_ZN6VNUserC2Ei(ptr noundef nonnull align 8 dereferenceable(8) %0, i32 noundef %1) unnamed_addr #5 comdat align 2 {
  %3 = alloca ptr, align 8
  %4 = alloca i32, align 4
  store ptr %0, ptr %3, align 8
  store i32 %1, ptr %4, align 4
  %5 = load ptr, ptr %3, align 8
  %6 = getelementptr inbounds %class.VNUser, ptr %5, i32 0, i32 0
  store ptr null, ptr %6, align 8
  %7 = load i32, ptr %4, align 4
  %8 = getelementptr inbounds %class.VNUser, ptr %5, i32 0, i32 0
  store i32 %7, ptr %8, align 8
  ret void
}

; Function Attrs: mustprogress nounwind uwtable
define linkonce_odr dso_local void @_ZN7AstNode6user1uERK6VNUser(ptr noundef nonnull align 8 dereferenceable(152) %0, ptr noundef nonnull align 8 dereferenceable(8) %1) #5 comdat align 2 {
  %3 = alloca ptr, align 8
  %4 = alloca ptr, align 8
  store ptr %0, ptr %3, align 8
  store ptr %1, ptr %4, align 8
  %5 = load ptr, ptr %3, align 8
  %6 = load ptr, ptr %4, align 8
  %7 = getelementptr inbounds %class.AstNode, ptr %5, i32 0, i32 16
  call void @llvm.memcpy.p0.p0.i64(ptr align 8 %7, ptr align 8 %6, i64 8, i1 false)
  %8 = load i32, ptr @_ZN12VNUser1InUse12s_userCntGblE, align 4
  %9 = getelementptr inbounds %class.AstNode, ptr %5, i32 0, i32 17
  store i32 %8, ptr %9, align 8
  ret void
}

; Function Attrs: mustprogress nounwind uwtable
define linkonce_odr dso_local void @_ZN6VNUserC2EPv(ptr noundef nonnull align 8 dereferenceable(8) %0, ptr noundef %1) unnamed_addr #5 comdat align 2 {
  %3 = alloca ptr, align 8
  %4 = alloca ptr, align 8
  store ptr %0, ptr %3, align 8
  store ptr %1, ptr %4, align 8
  %5 = load ptr, ptr %3, align 8
  %6 = load ptr, ptr %4, align 8
  %7 = getelementptr inbounds %class.VNUser, ptr %5, i32 0, i32 0
  store ptr %6, ptr %7, align 8
  ret void
}

; Function Attrs: mustprogress nounwind uwtable
define linkonce_odr dso_local void @_ZN11V3ListLinksI11V3GraphEdgeED2Ev(ptr noundef nonnull align 8 dereferenceable(16) %0) unnamed_addr #5 comdat align 2 {
  %2 = alloca ptr, align 8
  store ptr %0, ptr %2, align 8
  ret void
}

; Function Attrs: mustprogress nounwind uwtable
define linkonce_odr dso_local void @_ZN11V3ListLinksI11V3GraphEdgeEC2Ev(ptr noundef nonnull align 8 dereferenceable(16) %0) unnamed_addr #5 comdat align 2 {
  %2 = alloca ptr, align 8
  store ptr %0, ptr %2, align 8
  %3 = load ptr, ptr %2, align 8
  %4 = getelementptr inbounds %class.V3ListLinks.107, ptr %3, i32 0, i32 0
  store ptr null, ptr %4, align 8
  %5 = getelementptr inbounds %class.V3ListLinks.107, ptr %3, i32 0, i32 1
  store ptr null, ptr %5, align 8
  ret void
}

; Function Attrs: mustprogress uwtable
define linkonce_odr dso_local noundef ptr @_ZNK6VNUser7toNodepEv(ptr noundef nonnull align 8 dereferenceable(8) %0) #4 comdat align 2 {
  %2 = alloca ptr, align 8
  store ptr %0, ptr %2, align 8
  %3 = load ptr, ptr %2, align 8
  %4 = call noundef ptr @_ZNK6VNUser2toIP7AstNodeEENSt9enable_ifIXsr3std10is_pointerIT_EE5valueES4_E4typeEv(ptr noundef nonnull align 8 dereferenceable(8) %3)
  ret ptr %4
}

; Function Attrs: mustprogress nounwind uwtable
define internal noundef ptr @_ZNK6VNUser2toIPN7V3Sched12_GLOBAL__N_114SchedVarVertexEEENSt9enable_ifIXsr3std10is_pointerIT_EE5valueES6_E4typeEv(ptr noundef nonnull align 8 dereferenceable(8) %0) #5 align 2 {
  %2 = alloca ptr, align 8
  store ptr %0, ptr %2, align 8
  %3 = load ptr, ptr %2, align 8
  %4 = getelementptr inbounds %class.VNUser, ptr %3, i32 0, i32 0
  %5 = load ptr, ptr %4, align 8
  ret ptr %5
}

; Function Attrs: mustprogress uwtable
define linkonce_odr dso_local ptr @_ZNK7AstNode6user1uEv(ptr noundef nonnull align 8 dereferenceable(152) %0) #4 comdat align 2 {
  %2 = alloca %class.VNUser, align 8
  %3 = alloca ptr, align 8
  store ptr %0, ptr %3, align 8
  %4 = load ptr, ptr %3, align 8
  %5 = getelementptr inbounds %class.AstNode, ptr %4, i32 0, i32 17
  %6 = load i32, ptr %5, align 8
  %7 = load i32, ptr @_ZN12VNUser1InUse12s_userCntGblE, align 4
  %8 = icmp eq i32 %6, %7
  br i1 %8, label %9, label %11

9:                                                ; preds = %1
  %10 = getelementptr inbounds %class.AstNode, ptr %4, i32 0, i32 16
  call void @llvm.memcpy.p0.p0.i64(ptr align 8 %2, ptr align 8 %10, i64 8, i1 false)
  br label %12

11:                                               ; preds = %1
  call void @_ZN6VNUserC2Ei(ptr noundef nonnull align 8 dereferenceable(8) %2, i32 noundef 0)
  br label %12

12:                                               ; preds = %11, %9
  %13 = getelementptr inbounds %class.VNUser, ptr %2, i32 0, i32 0
  %14 = getelementptr inbounds %union.anon.8, ptr %13, i32 0, i32 0
  %15 = load ptr, ptr %14, align 8
  ret ptr %15
}

; Function Attrs: mustprogress uwtable
define linkonce_odr dso_local void @_ZN7AstNode6user1pEPv(ptr noundef nonnull align 8 dereferenceable(152) %0, ptr noundef %1) #4 comdat align 2 {
  %3 = alloca ptr, align 8
  %4 = alloca ptr, align 8
  %5 = alloca %class.VNUser, align 8
  store ptr %0, ptr %3, align 8
  store ptr %1, ptr %4, align 8
  %6 = load ptr, ptr %3, align 8
  %7 = load ptr, ptr %4, align 8
  call void @_ZN6VNUserC2EPv(ptr noundef nonnull align 8 dereferenceable(8) %5, ptr noundef %7)
  call void @_ZN7AstNode6user1uERK6VNUser(ptr noundef nonnull align 8 dereferenceable(152) %6, ptr noundef nonnull align 8 dereferenceable(8) %5)
  ret void
}

; Function Attrs: mustprogress uwtable
define linkonce_odr dso_local void @_ZN11V3GraphEdgeC2EP7V3GraphP13V3GraphVertexS3_ib(ptr noundef nonnull align 8 dereferenceable(72) %0, ptr noundef %1, ptr noundef %2, ptr noundef %3, i32 noundef %4, i1 noundef zeroext %5) unnamed_addr #4 comdat align 2 personality ptr @__gxx_personality_v0 {
  %7 = alloca ptr, align 8
  %8 = alloca ptr, align 8
  %9 = alloca ptr, align 8
  %10 = alloca ptr, align 8
  %11 = alloca i32, align 4
  %12 = alloca i8, align 1
  %13 = alloca ptr, align 8
  %14 = alloca i32, align 4
  store ptr %0, ptr %7, align 8
  store ptr %1, ptr %8, align 8
  store ptr %2, ptr %9, align 8
  store ptr %3, ptr %10, align 8
  store i32 %4, ptr %11, align 4
  %15 = zext i1 %5 to i8
  store i8 %15, ptr %12, align 1
  %16 = load ptr, ptr %7, align 8
  store ptr getelementptr inbounds inrange(-16, 72) ({ [11 x ptr] }, ptr @_ZTV11V3GraphEdge, i32 0, i32 0, i32 2), ptr %16, align 8
  %17 = getelementptr inbounds %class.V3GraphEdge, ptr %16, i32 0, i32 1
  call void @_ZN11V3ListLinksI11V3GraphEdgeEC2Ev(ptr noundef nonnull align 8 dereferenceable(16) %17) #3
  %18 = getelementptr inbounds %class.V3GraphEdge, ptr %16, i32 0, i32 2
  call void @_ZN11V3ListLinksI11V3GraphEdgeEC2Ev(ptr noundef nonnull align 8 dereferenceable(16) %18) #3
  %19 = load ptr, ptr %8, align 8
  %20 = load ptr, ptr %9, align 8
  %21 = load ptr, ptr %10, align 8
  %22 = load i32, ptr %11, align 4
  %23 = load i8, ptr %12, align 1
  %24 = trunc i8 %23 to i1
  invoke void @_ZN11V3GraphEdge4initEP7V3GraphP13V3GraphVertexS3_ib(ptr noundef nonnull align 8 dereferenceable(72) %16, ptr noundef %19, ptr noundef %20, ptr noundef %21, i32 noundef %22, i1 noundef zeroext %24)
          to label %25 unwind label %26

25:                                               ; preds = %6
  ret void

26:                                               ; preds = %6
  %27 = landingpad { ptr, i32 }
          cleanup
  %28 = extractvalue { ptr, i32 } %27, 0
  store ptr %28, ptr %13, align 8
  %29 = extractvalue { ptr, i32 } %27, 1
  store i32 %29, ptr %14, align 4
  call void @_ZN11V3ListLinksI11V3GraphEdgeED2Ev(ptr noundef nonnull align 8 dereferenceable(16) %18) #3
  call void @_ZN11V3ListLinksI11V3GraphEdgeED2Ev(ptr noundef nonnull align 8 dereferenceable(16) %17) #3
  br label %30

30:                                               ; preds = %26
  %31 = load ptr, ptr %13, align 8
  %32 = load i32, ptr %14, align 4
  %33 = insertvalue { ptr, i32 } poison, ptr %31, 0
  %34 = insertvalue { ptr, i32 } %33, i32 %32, 1
  resume { ptr, i32 } %34
}

; Function Attrs: mustprogress nounwind uwtable
define linkonce_odr dso_local noundef zeroext i1 @_ZNK6AstVar14isWrittenByDpiEv(ptr noundef nonnull align 8 dereferenceable(280) %0) #5 comdat align 2 {
  %2 = alloca ptr, align 8
  store ptr %0, ptr %2, align 8
  %3 = load ptr, ptr %2, align 8
  %4 = getelementptr inbounds %class.AstVar, ptr %3, i32 0, i32 11
  %5 = load i64, ptr %4, align 4
  %6 = lshr i64 %5, 41
  %7 = and i64 %6, 1
  %8 = trunc i64 %7 to i1
  ret i1 %8
}

; Function Attrs: mustprogress nounwind uwtable
define linkonce_odr dso_local noundef ptr @_ZNK11AstVarScope4varpEv(ptr noundef nonnull align 8 dereferenceable(176) %0) #5 comdat align 2 {
  %2 = alloca ptr, align 8
  store ptr %0, ptr %2, align 8
  %3 = load ptr, ptr %2, align 8
  %4 = getelementptr inbounds %class.AstVarScope, ptr %3, i32 0, i32 3
  %5 = load ptr, ptr %4, align 8
  ret ptr %5
}

; Function Attrs: mustprogress uwtable
define internal void @_ZN7V3Sched12_GLOBAL__N_114SchedVarVertexC2EP7V3GraphP11AstVarScope(ptr noundef nonnull align 8 dereferenceable(88) %0, ptr noundef %1, ptr noundef %2) unnamed_addr #4 align 2 {
  %4 = alloca ptr, align 8
  %5 = alloca ptr, align 8
  %6 = alloca ptr, align 8
  store ptr %0, ptr %4, align 8
  store ptr %1, ptr %5, align 8
  store ptr %2, ptr %6, align 8
  %7 = load ptr, ptr %4, align 8
  %8 = load ptr, ptr %5, align 8
  call void @_ZN13V3GraphVertexC2EP7V3Graph(ptr noundef nonnull align 8 dereferenceable(80) %7, ptr noundef %8)
  store ptr getelementptr inbounds inrange(-16, 104) ({ [15 x ptr] }, ptr @_ZTVN7V3Sched12_GLOBAL__N_114SchedVarVertexE, i32 0, i32 0, i32 2), ptr %7, align 8
  %9 = getelementptr inbounds %"class.V3Sched::(anonymous namespace)::SchedVarVertex", ptr %7, i32 0, i32 1
  %10 = load ptr, ptr %6, align 8
  store ptr %10, ptr %9, align 8
  ret void
}

; Function Attrs: mustprogress uwtable
define linkonce_odr dso_local noundef ptr @_ZNK7AstNode6user1pEv(ptr noundef nonnull align 8 dereferenceable(152) %0) #4 comdat align 2 {
  %2 = alloca ptr, align 8
  %3 = alloca %class.VNUser, align 8
  store ptr %0, ptr %2, align 8
  %4 = load ptr, ptr %2, align 8
  %5 = call ptr @_ZNK7AstNode6user1uEv(ptr noundef nonnull align 8 dereferenceable(152) %4)
  %6 = getelementptr inbounds %class.VNUser, ptr %3, i32 0, i32 0
  %7 = getelementptr inbounds %union.anon.8, ptr %6, i32 0, i32 0
  store ptr %5, ptr %7, align 8
  %8 = call noundef ptr @_ZNK6VNUser7toNodepEv(ptr noundef nonnull align 8 dereferenceable(8) %3)
  ret ptr %8
}

; Function Attrs: mustprogress uwtable
define internal noundef ptr @_ZNK7V3Sched12_GLOBAL__N_117SchedGraphBuilder12getVarVertexEP11AstVarScope(ptr noundef nonnull align 8 dereferenceable(168) %0, ptr noundef %1) #4 align 2 personality ptr @__gxx_personality_v0 {
  %3 = alloca ptr, align 8
  %4 = alloca ptr, align 8
  %5 = alloca ptr, align 8
  %6 = alloca ptr, align 8
  %7 = alloca i32, align 4
  %8 = alloca %class.VNUser, align 8
  store ptr %0, ptr %3, align 8
  store ptr %1, ptr %4, align 8
  %9 = load ptr, ptr %3, align 8
  %10 = load ptr, ptr %4, align 8
  %11 = call noundef ptr @_ZNK7AstNode6user1pEv(ptr noundef nonnull align 8 dereferenceable(152) %10)
  %12 = icmp ne ptr %11, null
  br i1 %12, label %43, label %13

13:                                               ; preds = %2
  %14 = call noalias noundef nonnull ptr @_Znwm(i64 noundef 88) #17
  %15 = getelementptr inbounds %"class.V3Sched::(anonymous namespace)::SchedGraphBuilder", ptr %9, i32 0, i32 3
  %16 = load ptr, ptr %15, align 8
  %17 = load ptr, ptr %4, align 8
  invoke void @_ZN7V3Sched12_GLOBAL__N_114SchedVarVertexC2EP7V3GraphP11AstVarScope(ptr noundef nonnull align 8 dereferenceable(88) %14, ptr noundef %16, ptr noundef %17)
          to label %18 unwind label %32

18:                                               ; preds = %13
  store ptr %14, ptr %5, align 8
  %19 = load ptr, ptr %4, align 8
  %20 = call noundef ptr @_ZNK11AstVarScope4varpEv(ptr noundef nonnull align 8 dereferenceable(176) %19)
  %21 = call noundef zeroext i1 @_ZNK6AstVar14isWrittenByDpiEv(ptr noundef nonnull align 8 dereferenceable(280) %20)
  br i1 %21, label %22, label %40

22:                                               ; preds = %18
  %23 = call noalias noundef nonnull ptr @_Znwm(i64 noundef 72) #17
  %24 = getelementptr inbounds %"class.V3Sched::(anonymous namespace)::SchedGraphBuilder", ptr %9, i32 0, i32 3
  %25 = load ptr, ptr %24, align 8
  %26 = getelementptr inbounds %"class.V3Sched::(anonymous namespace)::SchedGraphBuilder", ptr %9, i32 0, i32 8
  %27 = load ptr, ptr %26, align 8
  %28 = invoke noundef ptr @_ZNK7V3Sched12_GLOBAL__N_117SchedGraphBuilder12getVarVertexEP11AstVarScope(ptr noundef nonnull align 8 dereferenceable(168) %9, ptr noundef %27)
          to label %29 unwind label %36

29:                                               ; preds = %22
  %30 = load ptr, ptr %5, align 8
  invoke void @_ZN11V3GraphEdgeC2EP7V3GraphP13V3GraphVertexS3_ib(ptr noundef nonnull align 8 dereferenceable(72) %23, ptr noundef %25, ptr noundef %28, ptr noundef %30, i32 noundef 1, i1 noundef zeroext false)
          to label %31 unwind label %36

31:                                               ; preds = %29
  br label %40

32:                                               ; preds = %13
  %33 = landingpad { ptr, i32 }
          cleanup
  %34 = extractvalue { ptr, i32 } %33, 0
  store ptr %34, ptr %6, align 8
  %35 = extractvalue { ptr, i32 } %33, 1
  store i32 %35, ptr %7, align 4
  call void @_ZdlPv(ptr noundef %14) #18
  br label %49

36:                                               ; preds = %29, %22
  %37 = landingpad { ptr, i32 }
          cleanup
  %38 = extractvalue { ptr, i32 } %37, 0
  store ptr %38, ptr %6, align 8
  %39 = extractvalue { ptr, i32 } %37, 1
  store i32 %39, ptr %7, align 4
  call void @_ZdlPv(ptr noundef %23) #18
  br label %49

40:                                               ; preds = %31, %18
  %41 = load ptr, ptr %4, align 8
  %42 = load ptr, ptr %5, align 8
  call void @_ZN7AstNode6user1pEPv(ptr noundef nonnull align 8 dereferenceable(152) %41, ptr noundef %42)
  br label %43

43:                                               ; preds = %40, %2
  %44 = load ptr, ptr %4, align 8
  %45 = call ptr @_ZNK7AstNode6user1uEv(ptr noundef nonnull align 8 dereferenceable(152) %44)
  %46 = getelementptr inbounds %class.VNUser, ptr %8, i32 0, i32 0
  %47 = getelementptr inbounds %union.anon.8, ptr %46, i32 0, i32 0
  store ptr %45, ptr %47, align 8
  %48 = call noundef ptr @_ZNK6VNUser2toIPN7V3Sched12_GLOBAL__N_114SchedVarVertexEEENSt9enable_ifIXsr3std10is_pointerIT_EE5valueES6_E4typeEv(ptr noundef nonnull align 8 dereferenceable(8) %8)
  ret ptr %48

49:                                               ; preds = %36, %32
  %50 = load ptr, ptr %6, align 8
  %51 = load i32, ptr %7, align 4
  %52 = insertvalue { ptr, i32 } poison, ptr %50, 0
  %53 = insertvalue { ptr, i32 } %52, i32 %51, 1
  resume { ptr, i32 } %53
}