; Function Attrs: mustprogress uwtable
define internal fastcc noundef ptr @_ZNK7V3Sched12_GLOBAL__N_117SchedGraphBuilder12getVarVertexEP11AstVarScope(ptr nocapture noundef nonnull readonly align 8 dereferenceable(168) %0, ptr noundef %1) unnamed_addr #3 align 2 personality ptr @__gxx_personality_v0 {
  %3 = getelementptr inbounds i8, ptr %1, i64 112
  %4 = load i32, ptr %3, align 8
  %5 = load i32, ptr @_ZN12VNUser1InUse12s_userCntGblE, align 4
  %6 = icmp ne i32 %4, %5
  %7 = getelementptr inbounds i8, ptr %1, i64 104
  %8 = load i64, ptr %7, align 8
  %.not11 = icmp eq i64 %8, 0
  %.not = select i1 %6, i1 true, i1 %.not11
  br i1 %.not, label %9, label %34

9:                                                ; preds = %2
  %10 = tail call noalias noundef nonnull dereferenceable(88) ptr @_Znwm(i64 noundef 88) #25
  %11 = getelementptr inbounds i8, ptr %0, i64 40
  %12 = load ptr, ptr %11, align 8
  invoke void @_ZN13V3GraphVertexC2EP7V3Graph(ptr noundef nonnull align 8 dereferenceable(80) %10, ptr noundef %12)
          to label %13 unwind label %28

13:                                               ; preds = %9
  store ptr getelementptr inbounds inrange(-16, 104) ({ [15 x ptr] }, ptr @_ZTVN7V3Sched12_GLOBAL__N_114SchedVarVertexE, i64 0, i32 0, i64 2), ptr %10, align 8
  %14 = getelementptr inbounds i8, ptr %10, i64 80
  store ptr %1, ptr %14, align 8
  %15 = getelementptr inbounds i8, ptr %1, i64 168
  %16 = load ptr, ptr %15, align 8
  %17 = getelementptr inbounds i8, ptr %16, i64 260
  %18 = load i64, ptr %17, align 4
  %19 = and i64 %18, 2199023255552
  %.not12 = icmp eq i64 %19, 0
  br i1 %.not12, label %_ZN11V3GraphEdgeC2EP7V3GraphP13V3GraphVertexS3_ib.exit, label %20

20:                                               ; preds = %13
  %21 = tail call noalias noundef nonnull dereferenceable(72) ptr @_Znwm(i64 noundef 72) #25
  %22 = load ptr, ptr %11, align 8
  %23 = getelementptr inbounds i8, ptr %0, i64 160
  %24 = load ptr, ptr %23, align 8
  %25 = invoke fastcc noundef ptr @_ZNK7V3Sched12_GLOBAL__N_117SchedGraphBuilder12getVarVertexEP11AstVarScope(ptr noundef nonnull align 8 dereferenceable(168) %0, ptr noundef %24)
          to label %26 unwind label %30

26:                                               ; preds = %20
  store ptr getelementptr inbounds inrange(-16, 72) ({ [11 x ptr] }, ptr @_ZTV11V3GraphEdge, i64 0, i32 0, i64 2), ptr %21, align 8
  %27 = getelementptr inbounds i8, ptr %21, i64 8
  tail call void @llvm.memset.p0.i64(ptr noundef nonnull align 8 dereferenceable(32) %27, i8 0, i64 32, i1 false)
  invoke void @_ZN11V3GraphEdge4initEP7V3GraphP13V3GraphVertexS3_ib(ptr noundef nonnull align 8 dereferenceable(72) %21, ptr noundef %22, ptr noundef %25, ptr noundef nonnull %10, i32 noundef 1, i1 noundef zeroext false)
          to label %_ZN11V3GraphEdgeC2EP7V3GraphP13V3GraphVertexS3_ib.exit unwind label %30

28:                                               ; preds = %9
  %29 = landingpad { ptr, i32 }
          cleanup
  br label %37

30:                                               ; preds = %26, %20
  %31 = landingpad { ptr, i32 }
          cleanup
  br label %37

_ZN11V3GraphEdgeC2EP7V3GraphP13V3GraphVertexS3_ib.exit: ; preds = %26, %13
  %32 = ptrtoint ptr %10 to i64
  store i64 %32, ptr %7, align 8
  %33 = load i32, ptr @_ZN12VNUser1InUse12s_userCntGblE, align 4
  store i32 %33, ptr %3, align 8
  br label %34

34:                                               ; preds = %_ZN11V3GraphEdgeC2EP7V3GraphP13V3GraphVertexS3_ib.exit, %2
  %35 = phi i64 [ %32, %_ZN11V3GraphEdgeC2EP7V3GraphP13V3GraphVertexS3_ib.exit ], [ %8, %2 ]
  %36 = inttoptr i64 %35 to ptr
  ret ptr %36

37:                                               ; preds = %30, %28
  %.sink = phi ptr [ %21, %30 ], [ %10, %28 ]
  %.pn = phi { ptr, i32 } [ %31, %30 ], [ %29, %28 ]
  tail call void @_ZdlPv(ptr noundef nonnull %.sink) #27
  resume { ptr, i32 } %.pn
}